target datalayout = "e-m:e-p270:32:32-p271:32:32-p272:64:64-i64:64-i128:128-f80:128-n8:16:32:64-S128"
target triple = "x86_64-pc-linux-gnu"

%struct.Lpk_Man_t_ = type { ptr, ptr, ptr, i32, i32, i32, i32, [10000 x %struct.Lpk_Cut_t_], [10000 x i32], ptr, ptr, ptr, ptr, i32, i32, i32, [100 x i32], [100 x i32], ptr, ptr, ptr, ptr, ptr, ptr, ptr, [32 x i32], [5 x [16 x ptr]], [8 x ptr], ptr, i32, i32, i32, i32, i32, i32, i32, i32, i32, i32, i32, i32, i32, [17 x i32], i64, i64, i64, i64, i64, i64, i64, i64, i64, i64, i64, i64, i64 }
%struct.Lpk_Cut_t_ = type { i32, [2 x i32], float, i32, [100 x i32], [100 x i32] }
%struct.Lpk_Par_t_ = type { i32, i32, i32, i32, i32, i32, i32, i32, i32, i32, i32, i32 }
%struct.Kit_DsdNtk_t_ = type { i16, i16, i16, i16, ptr, ptr, ptr }
%struct.Vec_Ptr_t_ = type { i32, i32, ptr }

@.str = private unnamed_addr constant [52 x i8] c"Cofactoring w.r.t. var %c (%d -> %d+%d supp vars):\0A\00", align 1

; Function Attrs: inlinehint nounwind uwtable
define internal ptr @Vec_PtrEntry(ptr noundef %0, i32 noundef %1) #3 {
  %3 = alloca ptr, align 8
  %4 = alloca i32, align 4
  store ptr %0, ptr %3, align 8, !tbaa !41
  store i32 %1, ptr %4, align 4, !tbaa !10
  %5 = load ptr, ptr %3, align 8, !tbaa !41
  %6 = getelementptr inbounds nuw %struct.Vec_Ptr_t_, ptr %5, i32 0, i32 2
  %7 = load ptr, ptr %6, align 8, !tbaa !42
  %8 = load i32, ptr %4, align 4, !tbaa !10
  %9 = sext i32 %8 to i64
  %10 = getelementptr inbounds ptr, ptr %7, i64 %9
  %11 = load ptr, ptr %10, align 8, !tbaa !44
  ret ptr %11
}

; Function Attrs: nounwind uwtable
define ptr @Lpk_MapTreeMux_rec(ptr noundef %0, ptr noundef %1, i32 noundef %2, ptr noundef %3) #0 {
  %5 = alloca ptr, align 8
  %6 = alloca ptr, align 8
  %7 = alloca ptr, align 8
  %8 = alloca i32, align 4
  %9 = alloca ptr, align 8
  %10 = alloca ptr, align 8
  %11 = alloca ptr, align 8
  %12 = alloca ptr, align 8
  %13 = alloca ptr, align 8
  %14 = alloca [2 x ptr], align 16
  %15 = alloca i32, align 4
  %16 = alloca i32, align 4
  store ptr %0, ptr %6, align 8, !tbaa !3
  store ptr %1, ptr %7, align 8, !tbaa !8
  store i32 %2, ptr %8, align 4, !tbaa !10
  store ptr %3, ptr %9, align 8, !tbaa !27
  call void @llvm.lifetime.start.p0(i64 8, ptr %10) #4
  %17 = load ptr, ptr %6, align 8, !tbaa !3
  %18 = getelementptr inbounds nuw %struct.Lpk_Man_t_, ptr %17, i32 0, i32 21
  %19 = load ptr, ptr %18, align 8, !tbaa !29
  %20 = call ptr @Vec_PtrEntry(ptr noundef %19, i32 noundef 0)
  store ptr %20, ptr %10, align 8, !tbaa !8
  call void @llvm.lifetime.start.p0(i64 8, ptr %11) #4
  %21 = load ptr, ptr %6, align 8, !tbaa !3
  %22 = getelementptr inbounds nuw %struct.Lpk_Man_t_, ptr %21, i32 0, i32 21
  %23 = load ptr, ptr %22, align 8, !tbaa !29
  %24 = call ptr @Vec_PtrEntry(ptr noundef %23, i32 noundef 1)
  store ptr %24, ptr %11, align 8, !tbaa !8
  call void @llvm.lifetime.start.p0(i64 8, ptr %12) #4
  call void @llvm.lifetime.start.p0(i64 8, ptr %13) #4
  call void @llvm.lifetime.start.p0(i64 16, ptr %14) #4
  call void @llvm.lifetime.start.p0(i64 4, ptr %15) #4
  %25 = load ptr, ptr %6, align 8, !tbaa !3
  %26 = getelementptr inbounds nuw %struct.Lpk_Man_t_, ptr %25, i32 0, i32 14
  store i32 1, ptr %26, align 4, !tbaa !30
  %27 = load ptr, ptr %6, align 8, !tbaa !3
  %28 = load ptr, ptr %7, align 8, !tbaa !8
  %29 = load i32, ptr %8, align 4, !tbaa !10
  %30 = load ptr, ptr %10, align 8, !tbaa !8
  %31 = load ptr, ptr %11, align 8, !tbaa !8
  %32 = call i32 @Lpk_MapTreeBestCofVar(ptr noundef %27, ptr noundef %28, i32 noundef %29, ptr noundef %30, ptr noundef %31)
  store i32 %32, ptr %15, align 4, !tbaa !10
  %33 = load i32, ptr %15, align 4, !tbaa !10
  %34 = icmp eq i32 %33, -1
  br i1 %34, label %35, label %36

35:                                               ; preds = %4
  store ptr null, ptr %5, align 8
  store i32 1, ptr %16, align 4
  br label %102

36:                                               ; preds = %4
  %37 = load ptr, ptr %10, align 8, !tbaa !8
  %38 = load i32, ptr %8, align 4, !tbaa !10
  %39 = call ptr @Kit_DsdDecompose(ptr noundef %37, i32 noundef %38)
  %40 = getelementptr inbounds [2 x ptr], ptr %14, i64 0, i64 0
  store ptr %39, ptr %40, align 16, !tbaa !31
  %41 = load ptr, ptr %11, align 8, !tbaa !8
  %42 = load i32, ptr %8, align 4, !tbaa !10
  %43 = call ptr @Kit_DsdDecompose(ptr noundef %41, i32 noundef %42)
  %44 = getelementptr inbounds [2 x ptr], ptr %14, i64 0, i64 1
  store ptr %43, ptr %44, align 8, !tbaa !31
  %45 = load ptr, ptr %6, align 8, !tbaa !3
  %46 = getelementptr inbounds nuw %struct.Lpk_Man_t_, ptr %45, i32 0, i32 0
  %47 = load ptr, ptr %46, align 8, !tbaa !12
  %48 = getelementptr inbounds nuw %struct.Lpk_Par_t_, ptr %47, i32 0, i32 9
  %49 = load i32, ptr %48, align 4, !tbaa !33
  %50 = icmp ne i32 %49, 0
  br i1 %50, label %51, label %66

51:                                               ; preds = %36
  %52 = load i32, ptr %15, align 4, !tbaa !10
  %53 = add nsw i32 97, %52
  %54 = load i32, ptr %8, align 4, !tbaa !10
  %55 = load ptr, ptr %10, align 8, !tbaa !8
  %56 = load i32, ptr %8, align 4, !tbaa !10
  %57 = call i32 @Kit_TruthSupportSize(ptr noundef %55, i32 noundef %56)
  %58 = load ptr, ptr %11, align 8, !tbaa !8
  %59 = load i32, ptr %8, align 4, !tbaa !10
  %60 = call i32 @Kit_TruthSupportSize(ptr noundef %58, i32 noundef %59)
  %61 = call i32 (ptr, ...) @printf(ptr noundef @.str, i32 noundef %53, i32 noundef %54, i32 noundef %57, i32 noundef %60)
  %62 = getelementptr inbounds [2 x ptr], ptr %14, i64 0, i64 0
  %63 = load ptr, ptr %62, align 16, !tbaa !31
  call void @Kit_DsdPrintExpanded(ptr noundef %63)
  %64 = getelementptr inbounds [2 x ptr], ptr %14, i64 0, i64 1
  %65 = load ptr, ptr %64, align 8, !tbaa !31
  call void @Kit_DsdPrintExpanded(ptr noundef %65)
  br label %66

66:                                               ; preds = %51, %36
  %67 = load ptr, ptr %6, align 8, !tbaa !3
  %68 = getelementptr inbounds [2 x ptr], ptr %14, i64 0, i64 0
  %69 = load ptr, ptr %68, align 16, !tbaa !31
  %70 = load ptr, ptr %9, align 8, !tbaa !27
  %71 = getelementptr inbounds [2 x ptr], ptr %14, i64 0, i64 0
  %72 = load ptr, ptr %71, align 16, !tbaa !31
  %73 = getelementptr inbounds nuw %struct.Kit_DsdNtk_t_, ptr %72, i32 0, i32 3
  %74 = load i16, ptr %73, align 2, !tbaa !34
  %75 = zext i16 %74 to i32
  %76 = call ptr @Lpk_MapTree_rec(ptr noundef %67, ptr noundef %69, ptr noundef %70, i32 noundef %75, ptr noundef null)
  store ptr %76, ptr %12, align 8, !tbaa !38
  %77 = load ptr, ptr %6, align 8, !tbaa !3
  %78 = getelementptr inbounds [2 x ptr], ptr %14, i64 0, i64 1
  %79 = load ptr, ptr %78, align 8, !tbaa !31
  %80 = load ptr, ptr %9, align 8, !tbaa !27
  %81 = getelementptr inbounds [2 x ptr], ptr %14, i64 0, i64 1
  %82 = load ptr, ptr %81, align 8, !tbaa !31
  %83 = getelementptr inbounds nuw %struct.Kit_DsdNtk_t_, ptr %82, i32 0, i32 3
  %84 = load i16, ptr %83, align 2, !tbaa !34
  %85 = zext i16 %84 to i32
  %86 = call ptr @Lpk_MapTree_rec(ptr noundef %77, ptr noundef %79, ptr noundef %80, i32 noundef %85, ptr noundef null)
  store ptr %86, ptr %13, align 8, !tbaa !38
  %87 = getelementptr inbounds [2 x ptr], ptr %14, i64 0, i64 0
  %88 = load ptr, ptr %87, align 16, !tbaa !31
  call void @Kit_DsdNtkFree(ptr noundef %88)
  %89 = getelementptr inbounds [2 x ptr], ptr %14, i64 0, i64 1
  %90 = load ptr, ptr %89, align 8, !tbaa !31
  call void @Kit_DsdNtkFree(ptr noundef %90)
  %91 = load ptr, ptr %6, align 8, !tbaa !3
  %92 = getelementptr inbounds nuw %struct.Lpk_Man_t_, ptr %91, i32 0, i32 10
  %93 = load ptr, ptr %92, align 8, !tbaa !40
  %94 = load ptr, ptr %12, align 8, !tbaa !38
  %95 = load ptr, ptr %13, align 8, !tbaa !38
  %96 = load ptr, ptr %9, align 8, !tbaa !27
  %97 = load i32, ptr %15, align 4, !tbaa !10
  %98 = sext i32 %97 to i64
  %99 = getelementptr inbounds ptr, ptr %96, i64 %98
  %100 = load ptr, ptr %99, align 8, !tbaa !38
  %101 = call ptr @If_ManCreateMux(ptr noundef %93, ptr noundef %94, ptr noundef %95, ptr noundef %100)
  store ptr %101, ptr %5, align 8
  store i32 1, ptr %16, align 4
  br label %102

102:                                              ; preds = %66, %35
  call void @llvm.lifetime.end.p0(i64 4, ptr %15) #4
  call void @llvm.lifetime.end.p0(i64 16, ptr %14) #4
  call void @llvm.lifetime.end.p0(i64 8, ptr %13) #4
  call void @llvm.lifetime.end.p0(i64 8, ptr %12) #4
  call void @llvm.lifetime.end.p0(i64 8, ptr %11) #4
  call void @llvm.lifetime.end.p0(i64 8, ptr %10) #4
  %103 = load ptr, ptr %5, align 8
  ret ptr %103
}