; Function Attrs: nounwind uwtable
define ptr @Lpk_MapTreeMux_rec(ptr noundef initializes((8240076, 8240080)) %0, ptr noundef %1, i32 noundef %2, ptr noundef %3) local_unnamed_addr #0 {
  %5 = getelementptr inbounds nuw i8, ptr %0, i64 8240912
  %6 = load ptr, ptr %5, align 8, !tbaa !22
  %7 = getelementptr i8, ptr %6, i64 8
  %.val = load ptr, ptr %7, align 8, !tbaa !23
  %8 = load ptr, ptr %.val, align 8, !tbaa !25
  %9 = getelementptr inbounds nuw i8, ptr %.val, i64 8
  %10 = load ptr, ptr %9, align 8, !tbaa !25
  %11 = getelementptr inbounds nuw i8, ptr %0, i64 8240076
  store i32 1, ptr %11, align 4, !tbaa !26
  %12 = tail call i32 @Lpk_MapTreeBestCofVar(ptr noundef %0, ptr noundef %1, i32 noundef %2, ptr noundef %8, ptr noundef %10)
  %13 = icmp eq i32 %12, -1
  br i1 %13, label %40, label %14

14:                                               ; preds = %4
  %15 = tail call ptr @Kit_DsdDecompose(ptr noundef %8, i32 noundef %2) #5
  %16 = tail call ptr @Kit_DsdDecompose(ptr noundef %10, i32 noundef %2) #5
  %17 = load ptr, ptr %0, align 8, !tbaa !3
  %18 = getelementptr inbounds nuw i8, ptr %17, i64 36
  %19 = load i32, ptr %18, align 4, !tbaa !27
  %.not = icmp eq i32 %19, 0
  br i1 %.not, label %25, label %20

20:                                               ; preds = %14
  %21 = add nsw i32 %12, 97
  %22 = tail call i32 @Kit_TruthSupportSize(ptr noundef %8, i32 noundef %2) #5
  %23 = tail call i32 @Kit_TruthSupportSize(ptr noundef %10, i32 noundef %2) #5
  %24 = tail call i32 (ptr, ...) @printf(ptr noundef nonnull dereferenceable(1) @.str, i32 noundef %21, i32 noundef %2, i32 noundef %22, i32 noundef %23)
  tail call void @Kit_DsdPrintExpanded(ptr noundef %15) #5
  tail call void @Kit_DsdPrintExpanded(ptr noundef %16) #5
  br label %25

25:                                               ; preds = %20, %14
  %26 = getelementptr inbounds nuw i8, ptr %15, i64 6
  %27 = load i16, ptr %26, align 2, !tbaa !28
  %28 = zext i16 %27 to i32
  %29 = tail call ptr @Lpk_MapTree_rec(ptr noundef nonnull %0, ptr noundef %15, ptr noundef %3, i32 noundef %28, ptr noundef null) #5
  %30 = getelementptr inbounds nuw i8, ptr %16, i64 6
  %31 = load i16, ptr %30, align 2, !tbaa !28
  %32 = zext i16 %31 to i32
  %33 = tail call ptr @Lpk_MapTree_rec(ptr noundef nonnull %0, ptr noundef %16, ptr noundef %3, i32 noundef %32, ptr noundef null) #5
  tail call void @Kit_DsdNtkFree(ptr noundef %15) #5
  tail call void @Kit_DsdNtkFree(ptr noundef %16) #5
  %34 = getelementptr inbounds nuw i8, ptr %0, i64 8240048
  %35 = load ptr, ptr %34, align 8, !tbaa !33
  %36 = sext i32 %12 to i64
  %37 = getelementptr inbounds ptr, ptr %3, i64 %36
  %38 = load ptr, ptr %37, align 8, !tbaa !34
  %39 = tail call ptr @If_ManCreateMux(ptr noundef %35, ptr noundef %29, ptr noundef %33, ptr noundef %38) #5
  br label %40

40:                                               ; preds = %4, %25
  %.0 = phi ptr [ %39, %25 ], [ null, %4 ]
  ret ptr %.0
}